
blink.elf:     file format elf32-littleriscv


Disassembly of section .text:

00080000 <main>:
   80000:	00080637          	lui	a2,0x80
   80004:	0aa00793          	li	a5,170
   80008:	000806b7          	lui	a3,0x80
   8000c:	10f62023          	sw	a5,256(a2) # 80100 <delay+0x40>
   80010:	00080eb7          	lui	t4,0x80
   80014:	1006a223          	sw	zero,260(a3) # 80104 <delay+0x44>
   80018:	00080e37          	lui	t3,0x80
   8001c:	100ea423          	sw	zero,264(t4) # 80108 <delay+0x48>
   80020:	1a1017b7          	lui	a5,0x1a101
   80024:	100e2623          	sw	zero,268(t3) # 8010c <delay+0x4c>
   80028:	473d                	li	a4,15
   8002a:	4885                	li	a7,1
   8002c:	c398                	sw	a4,0(a5)
   8002e:	10060613          	addi	a2,a2,256
   80032:	10468693          	addi	a3,a3,260
   80036:	108e8e93          	addi	t4,t4,264
   8003a:	10ce0e13          	addi	t3,t3,268
   8003e:	00878593          	addi	a1,a5,8 # 1a101008 <delay+0x1a080f48>
   80042:	82c6                	mv	t0,a7
   80044:	4509                	li	a0,2
   80046:	0bb00313          	li	t1,187
   8004a:	0ee00813          	li	a6,238
   8004e:	05500f93          	li	t6,85
   80052:	4f0d                	li	t5,3
   80054:	53fd                	li	t2,-1
   80056:	0115a023          	sw	a7,0(a1)
   8005a:	429c                	lw	a5,0(a3)
   8005c:	c79d                	beqz	a5,8008a <main+0x8a>
   8005e:	c188                	sw	a0,0(a1)
   80060:	00662023          	sw	t1,0(a2)
   80064:	02a78963          	beq	a5,a0,80096 <main+0x96>
   80068:	05e78263          	beq	a5,t5,800ac <main+0xac>
   8006c:	02579b63          	bne	a5,t0,800a2 <main+0xa2>
   80070:	000ea783          	lw	a5,0(t4)
   80074:	00fe2023          	sw	a5,0(t3)
   80078:	421c                	lw	a5,0(a2)
   8007a:	01078463          	beq	a5,a6,80082 <main+0x82>
   8007e:	01f62023          	sw	t6,0(a2)
   80082:	0006a023          	sw	zero,0(a3)
   80086:	0115a023          	sw	a7,0(a1)
   8008a:	3e800793          	li	a5,1000
   8008e:	873e                	mv	a4,a5
   80090:	17fd                	addi	a5,a5,-1
   80092:	ff75                	bnez	a4,8008e <main+0x8e>
   80094:	b7d9                	j	8005a <main+0x5a>
   80096:	000ea783          	lw	a5,0(t4)
   8009a:	0785                	addi	a5,a5,1
   8009c:	00fe2023          	sw	a5,0(t3)
   800a0:	bfe1                	j	80078 <main+0x78>
   800a2:	01062023          	sw	a6,0(a2)
   800a6:	007e2023          	sw	t2,0(t3)
   800aa:	b7f9                	j	80078 <main+0x78>
   800ac:	000ea783          	lw	a5,0(t4)
   800b0:	000ea703          	lw	a4,0(t4)
   800b4:	02e787b3          	mul	a5,a5,a4
   800b8:	00fe2023          	sw	a5,0(t3)
   800bc:	bf75                	j	80078 <main+0x78>

000800be <_start>:
   800be:	3789                	jal	80000 <main>

000800c0 <delay>:
   800c0:	1141                	addi	sp,sp,-16
   800c2:	c62a                	sw	a0,12(sp)
   800c4:	47b2                	lw	a5,12(sp)
   800c6:	fff78713          	addi	a4,a5,-1
   800ca:	c63a                	sw	a4,12(sp)
   800cc:	ffe5                	bnez	a5,800c4 <delay+0x4>
   800ce:	0141                	addi	sp,sp,16
   800d0:	8082                	ret
	...
